target datalayout = "e-m:e-p270:32:32-p271:32:32-p272:64:64-i64:64-i128:128-f80:128-n8:16:32:64-S128"
target triple = "x86_64-pc-linux-gnu"

%struct.__loadu_ps = type { <4 x float> }
%struct.__storeu_ps = type { <4 x float> }

; Function Attrs: alwaysinline nounwind uwtable
define available_externally <4 x float> @_mm_set1_ps(float noundef %0) #2 {
  %2 = alloca float, align 4
  %3 = alloca <4 x float>, align 16
  store float %0, ptr %2, align 4, !tbaa !29
  %4 = load float, ptr %2, align 4, !tbaa !29
  %5 = insertelement <4 x float> poison, float %4, i32 0
  %6 = load float, ptr %2, align 4, !tbaa !29
  %7 = insertelement <4 x float> %5, float %6, i32 1
  %8 = load float, ptr %2, align 4, !tbaa !29
  %9 = insertelement <4 x float> %7, float %8, i32 2
  %10 = load float, ptr %2, align 4, !tbaa !29
  %11 = insertelement <4 x float> %9, float %10, i32 3
  store <4 x float> %11, ptr %3, align 16, !tbaa !12
  %12 = load <4 x float>, ptr %3, align 16, !tbaa !12
  ret <4 x float> %12
}

; Function Attrs: alwaysinline nounwind uwtable
define available_externally void @_mm_storeu_ps(ptr noundef %0, <4 x float> noundef %1) #2 {
  %3 = alloca ptr, align 8
  %4 = alloca <4 x float>, align 16
  store ptr %0, ptr %3, align 8, !tbaa !21
  store <4 x float> %1, ptr %4, align 16, !tbaa !12
  %5 = load <4 x float>, ptr %4, align 16, !tbaa !12
  %6 = load ptr, ptr %3, align 8, !tbaa !21
  %7 = getelementptr inbounds nuw %struct.__storeu_ps, ptr %6, i32 0, i32 0
  store <4 x float> %5, ptr %7, align 1, !tbaa !12
  ret void
}

; Function Attrs: alwaysinline nounwind uwtable
define available_externally <4 x float> @_mm_mul_ps(<4 x float> noundef %0, <4 x float> noundef %1) #2 {
  %3 = alloca <4 x float>, align 16
  %4 = alloca <4 x float>, align 16
  store <4 x float> %0, ptr %3, align 16, !tbaa !12
  store <4 x float> %1, ptr %4, align 16, !tbaa !12
  %5 = load <4 x float>, ptr %3, align 16, !tbaa !12
  %6 = load <4 x float>, ptr %4, align 16, !tbaa !12
  %7 = fmul <4 x float> %5, %6
  ret <4 x float> %7
}

; Function Attrs: alwaysinline nounwind uwtable
define available_externally <4 x float> @_mm_loadu_ps(ptr noundef %0) #2 {
  %2 = alloca ptr, align 8
  store ptr %0, ptr %2, align 8, !tbaa !21
  %3 = load ptr, ptr %2, align 8, !tbaa !21
  %4 = getelementptr inbounds nuw %struct.__loadu_ps, ptr %3, i32 0, i32 0
  %5 = load <4 x float>, ptr %4, align 1, !tbaa !12
  ret <4 x float> %5
}

; Function Attrs: alwaysinline nounwind uwtable
define available_externally <4 x float> @_mm_set_ps1(float noundef %0) #2 {
  %2 = alloca float, align 4
  store float %0, ptr %2, align 4, !tbaa !29
  %3 = load float, ptr %2, align 4, !tbaa !29
  %4 = call <4 x float> @_mm_set1_ps(float noundef %3)
  ret <4 x float> %4
}

; Function Attrs: nounwind uwtable
define void @stbir__vertical_scatter_with_3_coeffs(ptr noundef %0, ptr noundef %1, ptr noundef %2, ptr noundef %3) #0 {
  %5 = alloca ptr, align 8
  %6 = alloca ptr, align 8
  %7 = alloca ptr, align 8
  %8 = alloca ptr, align 8
  %9 = alloca ptr, align 8
  %10 = alloca float, align 4
  %11 = alloca ptr, align 8
  %12 = alloca float, align 4
  %13 = alloca ptr, align 8
  %14 = alloca float, align 4
  %15 = alloca <4 x float>, align 16
  %16 = alloca <4 x float>, align 16
  %17 = alloca <4 x float>, align 16
  %18 = alloca <4 x float>, align 16
  %19 = alloca <4 x float>, align 16
  %20 = alloca <4 x float>, align 16
  %21 = alloca <4 x float>, align 16
  %22 = alloca <4 x float>, align 16
  %23 = alloca <4 x float>, align 16
  %24 = alloca <4 x float>, align 16
  %25 = alloca <4 x float>, align 16
  %26 = alloca <4 x float>, align 16
  %27 = alloca <4 x float>, align 16
  %28 = alloca float, align 4
  store ptr %0, ptr %5, align 8, !tbaa !796
  store ptr %1, ptr %6, align 8, !tbaa !21
  store ptr %2, ptr %7, align 8, !tbaa !21
  store ptr %3, ptr %8, align 8, !tbaa !21
  call void @llvm.lifetime.start.p0(i64 8, ptr %9) #12
  %29 = load ptr, ptr %5, align 8, !tbaa !796
  %30 = getelementptr inbounds ptr, ptr %29, i64 0
  %31 = load ptr, ptr %30, align 8, !tbaa !21
  store ptr %31, ptr %9, align 8, !tbaa !21
  call void @llvm.lifetime.start.p0(i64 4, ptr %10) #12
  %32 = load ptr, ptr %6, align 8, !tbaa !21
  %33 = getelementptr inbounds float, ptr %32, i64 0
  %34 = load float, ptr %33, align 4, !tbaa !29
  store float %34, ptr %10, align 4, !tbaa !29
  call void @llvm.lifetime.start.p0(i64 8, ptr %11) #12
  %35 = load ptr, ptr %5, align 8, !tbaa !796
  %36 = getelementptr inbounds ptr, ptr %35, i64 1
  %37 = load ptr, ptr %36, align 8, !tbaa !21
  store ptr %37, ptr %11, align 8, !tbaa !21
  call void @llvm.lifetime.start.p0(i64 4, ptr %12) #12
  %38 = load ptr, ptr %6, align 8, !tbaa !21
  %39 = getelementptr inbounds float, ptr %38, i64 1
  %40 = load float, ptr %39, align 4, !tbaa !29
  store float %40, ptr %12, align 4, !tbaa !29
  call void @llvm.lifetime.start.p0(i64 8, ptr %13) #12
  %41 = load ptr, ptr %5, align 8, !tbaa !796
  %42 = getelementptr inbounds ptr, ptr %41, i64 2
  %43 = load ptr, ptr %42, align 8, !tbaa !21
  store ptr %43, ptr %13, align 8, !tbaa !21
  call void @llvm.lifetime.start.p0(i64 4, ptr %14) #12
  %44 = load ptr, ptr %6, align 8, !tbaa !21
  %45 = getelementptr inbounds float, ptr %44, i64 2
  %46 = load float, ptr %45, align 4, !tbaa !29
  store float %46, ptr %14, align 4, !tbaa !29
  call void @llvm.lifetime.start.p0(i64 16, ptr %15) #12
  %47 = load float, ptr %10, align 4, !tbaa !29
  %48 = call <4 x float> @_mm_set_ps1(float noundef %47)
  store <4 x float> %48, ptr %15, align 16, !tbaa !12
  call void @llvm.lifetime.start.p0(i64 16, ptr %16) #12
  %49 = load float, ptr %12, align 4, !tbaa !29
  %50 = call <4 x float> @_mm_set_ps1(float noundef %49)
  store <4 x float> %50, ptr %16, align 16, !tbaa !12
  call void @llvm.lifetime.start.p0(i64 16, ptr %17) #12
  %51 = load float, ptr %14, align 4, !tbaa !29
  %52 = call <4 x float> @_mm_set_ps1(float noundef %51)
  store <4 x float> %52, ptr %17, align 16, !tbaa !12
  br label %53

53:                                               ; preds = %60, %4
  %54 = load ptr, ptr %8, align 8, !tbaa !21
  %55 = load ptr, ptr %7, align 8, !tbaa !21
  %56 = ptrtoint ptr %54 to i64
  %57 = ptrtoint ptr %55 to i64
  %58 = sub i64 %56, %57
  %59 = icmp sge i64 %58, 64
  br i1 %59, label %60, label %150

60:                                               ; preds = %53
  call void @llvm.lifetime.start.p0(i64 16, ptr %18) #12
  call void @llvm.lifetime.start.p0(i64 16, ptr %19) #12
  call void @llvm.lifetime.start.p0(i64 16, ptr %20) #12
  call void @llvm.lifetime.start.p0(i64 16, ptr %21) #12
  call void @llvm.lifetime.start.p0(i64 16, ptr %22) #12
  call void @llvm.lifetime.start.p0(i64 16, ptr %23) #12
  call void @llvm.lifetime.start.p0(i64 16, ptr %24) #12
  call void @llvm.lifetime.start.p0(i64 16, ptr %25) #12
  %61 = load ptr, ptr %9, align 8, !tbaa !21
  call void asm sideeffect "", "r,~{dirflag},~{fpsr},~{flags}"(ptr %61) #12, !srcloc !846
  %62 = load ptr, ptr %7, align 8, !tbaa !21
  %63 = call <4 x float> @_mm_loadu_ps(ptr noundef %62)
  store <4 x float> %63, ptr %22, align 16, !tbaa !12
  %64 = load ptr, ptr %7, align 8, !tbaa !21
  %65 = getelementptr inbounds float, ptr %64, i64 4
  %66 = call <4 x float> @_mm_loadu_ps(ptr noundef %65)
  store <4 x float> %66, ptr %23, align 16, !tbaa !12
  %67 = load ptr, ptr %7, align 8, !tbaa !21
  %68 = getelementptr inbounds float, ptr %67, i64 8
  %69 = call <4 x float> @_mm_loadu_ps(ptr noundef %68)
  store <4 x float> %69, ptr %24, align 16, !tbaa !12
  %70 = load ptr, ptr %7, align 8, !tbaa !21
  %71 = getelementptr inbounds float, ptr %70, i64 12
  %72 = call <4 x float> @_mm_loadu_ps(ptr noundef %71)
  store <4 x float> %72, ptr %25, align 16, !tbaa !12
  %73 = load <4 x float>, ptr %22, align 16, !tbaa !12
  %74 = load <4 x float>, ptr %15, align 16, !tbaa !12
  %75 = call <4 x float> @_mm_mul_ps(<4 x float> noundef %73, <4 x float> noundef %74)
  store <4 x float> %75, ptr %18, align 16, !tbaa !12
  %76 = load <4 x float>, ptr %23, align 16, !tbaa !12
  %77 = load <4 x float>, ptr %15, align 16, !tbaa !12
  %78 = call <4 x float> @_mm_mul_ps(<4 x float> noundef %76, <4 x float> noundef %77)
  store <4 x float> %78, ptr %19, align 16, !tbaa !12
  %79 = load <4 x float>, ptr %24, align 16, !tbaa !12
  %80 = load <4 x float>, ptr %15, align 16, !tbaa !12
  %81 = call <4 x float> @_mm_mul_ps(<4 x float> noundef %79, <4 x float> noundef %80)
  store <4 x float> %81, ptr %20, align 16, !tbaa !12
  %82 = load <4 x float>, ptr %25, align 16, !tbaa !12
  %83 = load <4 x float>, ptr %15, align 16, !tbaa !12
  %84 = call <4 x float> @_mm_mul_ps(<4 x float> noundef %82, <4 x float> noundef %83)
  store <4 x float> %84, ptr %21, align 16, !tbaa !12
  %85 = load ptr, ptr %9, align 8, !tbaa !21
  %86 = load <4 x float>, ptr %18, align 16, !tbaa !12
  call void @_mm_storeu_ps(ptr noundef %85, <4 x float> noundef %86)
  %87 = load ptr, ptr %9, align 8, !tbaa !21
  %88 = getelementptr inbounds float, ptr %87, i64 4
  %89 = load <4 x float>, ptr %19, align 16, !tbaa !12
  call void @_mm_storeu_ps(ptr noundef %88, <4 x float> noundef %89)
  %90 = load ptr, ptr %9, align 8, !tbaa !21
  %91 = getelementptr inbounds float, ptr %90, i64 8
  %92 = load <4 x float>, ptr %20, align 16, !tbaa !12
  call void @_mm_storeu_ps(ptr noundef %91, <4 x float> noundef %92)
  %93 = load ptr, ptr %9, align 8, !tbaa !21
  %94 = getelementptr inbounds float, ptr %93, i64 12
  %95 = load <4 x float>, ptr %21, align 16, !tbaa !12
  call void @_mm_storeu_ps(ptr noundef %94, <4 x float> noundef %95)
  %96 = load <4 x float>, ptr %22, align 16, !tbaa !12
  %97 = load <4 x float>, ptr %16, align 16, !tbaa !12
  %98 = call <4 x float> @_mm_mul_ps(<4 x float> noundef %96, <4 x float> noundef %97)
  store <4 x float> %98, ptr %18, align 16, !tbaa !12
  %99 = load <4 x float>, ptr %23, align 16, !tbaa !12
  %100 = load <4 x float>, ptr %16, align 16, !tbaa !12
  %101 = call <4 x float> @_mm_mul_ps(<4 x float> noundef %99, <4 x float> noundef %100)
  store <4 x float> %101, ptr %19, align 16, !tbaa !12
  %102 = load <4 x float>, ptr %24, align 16, !tbaa !12
  %103 = load <4 x float>, ptr %16, align 16, !tbaa !12
  %104 = call <4 x float> @_mm_mul_ps(<4 x float> noundef %102, <4 x float> noundef %103)
  store <4 x float> %104, ptr %20, align 16, !tbaa !12
  %105 = load <4 x float>, ptr %25, align 16, !tbaa !12
  %106 = load <4 x float>, ptr %16, align 16, !tbaa !12
  %107 = call <4 x float> @_mm_mul_ps(<4 x float> noundef %105, <4 x float> noundef %106)
  store <4 x float> %107, ptr %21, align 16, !tbaa !12
  %108 = load ptr, ptr %11, align 8, !tbaa !21
  %109 = load <4 x float>, ptr %18, align 16, !tbaa !12
  call void @_mm_storeu_ps(ptr noundef %108, <4 x float> noundef %109)
  %110 = load ptr, ptr %11, align 8, !tbaa !21
  %111 = getelementptr inbounds float, ptr %110, i64 4
  %112 = load <4 x float>, ptr %19, align 16, !tbaa !12
  call void @_mm_storeu_ps(ptr noundef %111, <4 x float> noundef %112)
  %113 = load ptr, ptr %11, align 8, !tbaa !21
  %114 = getelementptr inbounds float, ptr %113, i64 8
  %115 = load <4 x float>, ptr %20, align 16, !tbaa !12
  call void @_mm_storeu_ps(ptr noundef %114, <4 x float> noundef %115)
  %116 = load ptr, ptr %11, align 8, !tbaa !21
  %117 = getelementptr inbounds float, ptr %116, i64 12
  %118 = load <4 x float>, ptr %21, align 16, !tbaa !12
  call void @_mm_storeu_ps(ptr noundef %117, <4 x float> noundef %118)
  %119 = load <4 x float>, ptr %22, align 16, !tbaa !12
  %120 = load <4 x float>, ptr %17, align 16, !tbaa !12
  %121 = call <4 x float> @_mm_mul_ps(<4 x float> noundef %119, <4 x float> noundef %120)
  store <4 x float> %121, ptr %18, align 16, !tbaa !12
  %122 = load <4 x float>, ptr %23, align 16, !tbaa !12
  %123 = load <4 x float>, ptr %17, align 16, !tbaa !12
  %124 = call <4 x float> @_mm_mul_ps(<4 x float> noundef %122, <4 x float> noundef %123)
  store <4 x float> %124, ptr %19, align 16, !tbaa !12
  %125 = load <4 x float>, ptr %24, align 16, !tbaa !12
  %126 = load <4 x float>, ptr %17, align 16, !tbaa !12
  %127 = call <4 x float> @_mm_mul_ps(<4 x float> noundef %125, <4 x float> noundef %126)
  store <4 x float> %127, ptr %20, align 16, !tbaa !12
  %128 = load <4 x float>, ptr %25, align 16, !tbaa !12
  %129 = load <4 x float>, ptr %17, align 16, !tbaa !12
  %130 = call <4 x float> @_mm_mul_ps(<4 x float> noundef %128, <4 x float> noundef %129)
  store <4 x float> %130, ptr %21, align 16, !tbaa !12
  %131 = load ptr, ptr %13, align 8, !tbaa !21
  %132 = load <4 x float>, ptr %18, align 16, !tbaa !12
  call void @_mm_storeu_ps(ptr noundef %131, <4 x float> noundef %132)
  %133 = load ptr, ptr %13, align 8, !tbaa !21
  %134 = getelementptr inbounds float, ptr %133, i64 4
  %135 = load <4 x float>, ptr %19, align 16, !tbaa !12
  call void @_mm_storeu_ps(ptr noundef %134, <4 x float> noundef %135)
  %136 = load ptr, ptr %13, align 8, !tbaa !21
  %137 = getelementptr inbounds float, ptr %136, i64 8
  %138 = load <4 x float>, ptr %20, align 16, !tbaa !12
  call void @_mm_storeu_ps(ptr noundef %137, <4 x float> noundef %138)
  %139 = load ptr, ptr %13, align 8, !tbaa !21
  %140 = getelementptr inbounds float, ptr %139, i64 12
  %141 = load <4 x float>, ptr %21, align 16, !tbaa !12
  call void @_mm_storeu_ps(ptr noundef %140, <4 x float> noundef %141)
  %142 = load ptr, ptr %7, align 8, !tbaa !21
  %143 = getelementptr inbounds float, ptr %142, i64 16
  store ptr %143, ptr %7, align 8, !tbaa !21
  %144 = load ptr, ptr %9, align 8, !tbaa !21
  %145 = getelementptr inbounds float, ptr %144, i64 16
  store ptr %145, ptr %9, align 8, !tbaa !21
  %146 = load ptr, ptr %11, align 8, !tbaa !21
  %147 = getelementptr inbounds float, ptr %146, i64 16
  store ptr %147, ptr %11, align 8, !tbaa !21
  %148 = load ptr, ptr %13, align 8, !tbaa !21
  %149 = getelementptr inbounds float, ptr %148, i64 16
  store ptr %149, ptr %13, align 8, !tbaa !21
  call void @llvm.lifetime.end.p0(i64 16, ptr %25) #12
  call void @llvm.lifetime.end.p0(i64 16, ptr %24) #12
  call void @llvm.lifetime.end.p0(i64 16, ptr %23) #12
  call void @llvm.lifetime.end.p0(i64 16, ptr %22) #12
  call void @llvm.lifetime.end.p0(i64 16, ptr %21) #12
  call void @llvm.lifetime.end.p0(i64 16, ptr %20) #12
  call void @llvm.lifetime.end.p0(i64 16, ptr %19) #12
  call void @llvm.lifetime.end.p0(i64 16, ptr %18) #12
  br label %53, !llvm.loop !847

150:                                              ; preds = %53
  br label %151

151:                                              ; preds = %158, %150
  %152 = load ptr, ptr %8, align 8, !tbaa !21
  %153 = load ptr, ptr %7, align 8, !tbaa !21
  %154 = ptrtoint ptr %152 to i64
  %155 = ptrtoint ptr %153 to i64
  %156 = sub i64 %154, %155
  %157 = icmp sge i64 %156, 16
  br i1 %157, label %158, label %185

158:                                              ; preds = %151
  call void @llvm.lifetime.start.p0(i64 16, ptr %26) #12
  call void @llvm.lifetime.start.p0(i64 16, ptr %27) #12
  %159 = load ptr, ptr %9, align 8, !tbaa !21
  call void asm sideeffect "", "r,~{dirflag},~{fpsr},~{flags}"(ptr %159) #12, !srcloc !848
  %160 = load ptr, ptr %7, align 8, !tbaa !21
  %161 = call <4 x float> @_mm_loadu_ps(ptr noundef %160)
  store <4 x float> %161, ptr %27, align 16, !tbaa !12
  %162 = load <4 x float>, ptr %27, align 16, !tbaa !12
  %163 = load <4 x float>, ptr %15, align 16, !tbaa !12
  %164 = call <4 x float> @_mm_mul_ps(<4 x float> noundef %162, <4 x float> noundef %163)
  store <4 x float> %164, ptr %26, align 16, !tbaa !12
  %165 = load ptr, ptr %9, align 8, !tbaa !21
  %166 = load <4 x float>, ptr %26, align 16, !tbaa !12
  call void @_mm_storeu_ps(ptr noundef %165, <4 x float> noundef %166)
  %167 = load <4 x float>, ptr %27, align 16, !tbaa !12
  %168 = load <4 x float>, ptr %16, align 16, !tbaa !12
  %169 = call <4 x float> @_mm_mul_ps(<4 x float> noundef %167, <4 x float> noundef %168)
  store <4 x float> %169, ptr %26, align 16, !tbaa !12
  %170 = load ptr, ptr %11, align 8, !tbaa !21
  %171 = load <4 x float>, ptr %26, align 16, !tbaa !12
  call void @_mm_storeu_ps(ptr noundef %170, <4 x float> noundef %171)
  %172 = load <4 x float>, ptr %27, align 16, !tbaa !12
  %173 = load <4 x float>, ptr %17, align 16, !tbaa !12
  %174 = call <4 x float> @_mm_mul_ps(<4 x float> noundef %172, <4 x float> noundef %173)
  store <4 x float> %174, ptr %26, align 16, !tbaa !12
  %175 = load ptr, ptr %13, align 8, !tbaa !21
  %176 = load <4 x float>, ptr %26, align 16, !tbaa !12
  call void @_mm_storeu_ps(ptr noundef %175, <4 x float> noundef %176)
  %177 = load ptr, ptr %7, align 8, !tbaa !21
  %178 = getelementptr inbounds float, ptr %177, i64 4
  store ptr %178, ptr %7, align 8, !tbaa !21
  %179 = load ptr, ptr %9, align 8, !tbaa !21
  %180 = getelementptr inbounds float, ptr %179, i64 4
  store ptr %180, ptr %9, align 8, !tbaa !21
  %181 = load ptr, ptr %11, align 8, !tbaa !21
  %182 = getelementptr inbounds float, ptr %181, i64 4
  store ptr %182, ptr %11, align 8, !tbaa !21
  %183 = load ptr, ptr %13, align 8, !tbaa !21
  %184 = getelementptr inbounds float, ptr %183, i64 4
  store ptr %184, ptr %13, align 8, !tbaa !21
  call void @llvm.lifetime.end.p0(i64 16, ptr %27) #12
  call void @llvm.lifetime.end.p0(i64 16, ptr %26) #12
  br label %151, !llvm.loop !849

185:                                              ; preds = %151
  call void @llvm.lifetime.end.p0(i64 16, ptr %17) #12
  call void @llvm.lifetime.end.p0(i64 16, ptr %16) #12
  call void @llvm.lifetime.end.p0(i64 16, ptr %15) #12
  br label %186

186:                                              ; preds = %190, %185
  %187 = load ptr, ptr %7, align 8, !tbaa !21
  %188 = load ptr, ptr %8, align 8, !tbaa !21
  %189 = icmp ult ptr %187, %188
  br i1 %189, label %190, label %218

190:                                              ; preds = %186
  call void @llvm.lifetime.start.p0(i64 4, ptr %28) #12
  %191 = load ptr, ptr %7, align 8, !tbaa !21
  %192 = getelementptr inbounds float, ptr %191, i64 0
  %193 = load float, ptr %192, align 4, !tbaa !29
  store float %193, ptr %28, align 4, !tbaa !29
  %194 = load ptr, ptr %9, align 8, !tbaa !21
  call void asm sideeffect "", "r,~{dirflag},~{fpsr},~{flags}"(ptr %194) #12, !srcloc !850
  %195 = load float, ptr %28, align 4, !tbaa !29
  %196 = load float, ptr %10, align 4, !tbaa !29
  %197 = fmul float %195, %196
  %198 = load ptr, ptr %9, align 8, !tbaa !21
  %199 = getelementptr inbounds float, ptr %198, i64 0
  store float %197, ptr %199, align 4, !tbaa !29
  %200 = load float, ptr %28, align 4, !tbaa !29
  %201 = load float, ptr %12, align 4, !tbaa !29
  %202 = fmul float %200, %201
  %203 = load ptr, ptr %11, align 8, !tbaa !21
  %204 = getelementptr inbounds float, ptr %203, i64 0
  store float %202, ptr %204, align 4, !tbaa !29
  %205 = load float, ptr %28, align 4, !tbaa !29
  %206 = load float, ptr %14, align 4, !tbaa !29
  %207 = fmul float %205, %206
  %208 = load ptr, ptr %13, align 8, !tbaa !21
  %209 = getelementptr inbounds float, ptr %208, i64 0
  store float %207, ptr %209, align 4, !tbaa !29
  %210 = load ptr, ptr %7, align 8, !tbaa !21
  %211 = getelementptr inbounds nuw float, ptr %210, i32 1
  store ptr %211, ptr %7, align 8, !tbaa !21
  %212 = load ptr, ptr %9, align 8, !tbaa !21
  %213 = getelementptr inbounds nuw float, ptr %212, i32 1
  store ptr %213, ptr %9, align 8, !tbaa !21
  %214 = load ptr, ptr %11, align 8, !tbaa !21
  %215 = getelementptr inbounds nuw float, ptr %214, i32 1
  store ptr %215, ptr %11, align 8, !tbaa !21
  %216 = load ptr, ptr %13, align 8, !tbaa !21
  %217 = getelementptr inbounds nuw float, ptr %216, i32 1
  store ptr %217, ptr %13, align 8, !tbaa !21
  call void @llvm.lifetime.end.p0(i64 4, ptr %28) #12
  br label %186, !llvm.loop !851

218:                                              ; preds = %186
  call void @llvm.lifetime.end.p0(i64 4, ptr %14) #12
  call void @llvm.lifetime.end.p0(i64 8, ptr %13) #12
  call void @llvm.lifetime.end.p0(i64 4, ptr %12) #12
  call void @llvm.lifetime.end.p0(i64 8, ptr %11) #12
  call void @llvm.lifetime.end.p0(i64 4, ptr %10) #12
  call void @llvm.lifetime.end.p0(i64 8, ptr %9) #12
  ret void
}