; Function Attrs: nounwind uwtable
define void @stbir__vertical_scatter_with_3_coeffs(ptr noundef readonly captures(none) %0, ptr noundef readonly captures(none) %1, ptr noundef %2, ptr noundef %3) #0 {
  %5 = load ptr, ptr %0, align 8, !tbaa !707
  %6 = load float, ptr %1, align 4, !tbaa !50
  %7 = getelementptr inbounds nuw i8, ptr %0, i64 8
  %8 = load ptr, ptr %7, align 8, !tbaa !707
  %9 = getelementptr inbounds nuw i8, ptr %1, i64 4
  %10 = load float, ptr %9, align 4, !tbaa !50
  %11 = getelementptr inbounds nuw i8, ptr %0, i64 16
  %12 = load ptr, ptr %11, align 8, !tbaa !707
  %13 = getelementptr inbounds nuw i8, ptr %1, i64 8
  %14 = load float, ptr %13, align 4, !tbaa !50
  %15 = insertelement <4 x float> poison, float %6, i64 0
  %16 = shufflevector <4 x float> %15, <4 x float> poison, <4 x i32> zeroinitializer
  %17 = insertelement <4 x float> poison, float %10, i64 0
  %18 = shufflevector <4 x float> %17, <4 x float> poison, <4 x i32> zeroinitializer
  %19 = insertelement <4 x float> poison, float %14, i64 0
  %20 = shufflevector <4 x float> %19, <4 x float> poison, <4 x i32> zeroinitializer
  %21 = ptrtoint ptr %3 to i64
  %22 = ptrtoint ptr %2 to i64
  %23 = sub i64 %21, %22
  %24 = icmp sgt i64 %23, 63
  br i1 %24, label %.lr.ph, label %.preheader113

.preheader113:                                    ; preds = %.lr.ph, %4
  %.pre-phi143 = phi i64 [ %23, %4 ], [ %59, %.lr.ph ]
  %.0110.lcssa = phi ptr [ %12, %4 ], [ %57, %.lr.ph ]
  %.0107.lcssa = phi ptr [ %8, %4 ], [ %56, %.lr.ph ]
  %.0104.lcssa = phi ptr [ %5, %4 ], [ %55, %.lr.ph ]
  %.0.lcssa = phi ptr [ %2, %4 ], [ %54, %.lr.ph ]
  %25 = icmp sgt i64 %.pre-phi143, 15
  br i1 %25, label %.lr.ph126, label %.preheader

.lr.ph:                                           ; preds = %4, %.lr.ph
  %.0117 = phi ptr [ %54, %.lr.ph ], [ %2, %4 ]
  %.0104116 = phi ptr [ %55, %.lr.ph ], [ %5, %4 ]
  %.0107115 = phi ptr [ %56, %.lr.ph ], [ %8, %4 ]
  %.0110114 = phi ptr [ %57, %.lr.ph ], [ %12, %4 ]
  tail call void asm sideeffect "", "r,~{dirflag},~{fpsr},~{flags}"(ptr %.0104116) #24, !srcloc !756
  %26 = load <4 x float>, ptr %.0117, align 1, !tbaa !4
  %27 = getelementptr inbounds nuw i8, ptr %.0117, i64 16
  %28 = load <4 x float>, ptr %27, align 1, !tbaa !4
  %29 = getelementptr inbounds nuw i8, ptr %.0117, i64 32
  %30 = load <4 x float>, ptr %29, align 1, !tbaa !4
  %31 = getelementptr inbounds nuw i8, ptr %.0117, i64 48
  %32 = load <4 x float>, ptr %31, align 1, !tbaa !4
  %33 = fmul <4 x float> %16, %26
  %34 = fmul <4 x float> %16, %28
  %35 = fmul <4 x float> %16, %30
  %36 = fmul <4 x float> %16, %32
  store <4 x float> %33, ptr %.0104116, align 1, !tbaa !4
  %37 = getelementptr inbounds nuw i8, ptr %.0104116, i64 16
  store <4 x float> %34, ptr %37, align 1, !tbaa !4
  %38 = getelementptr inbounds nuw i8, ptr %.0104116, i64 32
  store <4 x float> %35, ptr %38, align 1, !tbaa !4
  %39 = getelementptr inbounds nuw i8, ptr %.0104116, i64 48
  store <4 x float> %36, ptr %39, align 1, !tbaa !4
  %40 = fmul <4 x float> %18, %26
  %41 = fmul <4 x float> %18, %28
  %42 = fmul <4 x float> %18, %30
  %43 = fmul <4 x float> %18, %32
  store <4 x float> %40, ptr %.0107115, align 1, !tbaa !4
  %44 = getelementptr inbounds nuw i8, ptr %.0107115, i64 16
  store <4 x float> %41, ptr %44, align 1, !tbaa !4
  %45 = getelementptr inbounds nuw i8, ptr %.0107115, i64 32
  store <4 x float> %42, ptr %45, align 1, !tbaa !4
  %46 = getelementptr inbounds nuw i8, ptr %.0107115, i64 48
  store <4 x float> %43, ptr %46, align 1, !tbaa !4
  %47 = fmul <4 x float> %20, %26
  %48 = fmul <4 x float> %20, %28
  %49 = fmul <4 x float> %20, %30
  %50 = fmul <4 x float> %20, %32
  store <4 x float> %47, ptr %.0110114, align 1, !tbaa !4
  %51 = getelementptr inbounds nuw i8, ptr %.0110114, i64 16
  store <4 x float> %48, ptr %51, align 1, !tbaa !4
  %52 = getelementptr inbounds nuw i8, ptr %.0110114, i64 32
  store <4 x float> %49, ptr %52, align 1, !tbaa !4
  %53 = getelementptr inbounds nuw i8, ptr %.0110114, i64 48
  store <4 x float> %50, ptr %53, align 1, !tbaa !4
  %54 = getelementptr inbounds nuw i8, ptr %.0117, i64 64
  %55 = getelementptr inbounds nuw i8, ptr %.0104116, i64 64
  %56 = getelementptr inbounds nuw i8, ptr %.0107115, i64 64
  %57 = getelementptr inbounds nuw i8, ptr %.0110114, i64 64
  %58 = ptrtoint ptr %54 to i64
  %59 = sub i64 %21, %58
  %60 = icmp sgt i64 %59, 63
  br i1 %60, label %.lr.ph, label %.preheader113, !llvm.loop !757

.preheader:                                       ; preds = %.lr.ph126, %.preheader113
  %.1111.lcssa = phi ptr [ %.0110.lcssa, %.preheader113 ], [ %69, %.lr.ph126 ]
  %.1108.lcssa = phi ptr [ %.0107.lcssa, %.preheader113 ], [ %68, %.lr.ph126 ]
  %.1105.lcssa = phi ptr [ %.0104.lcssa, %.preheader113 ], [ %67, %.lr.ph126 ]
  %.1.lcssa = phi ptr [ %.0.lcssa, %.preheader113 ], [ %66, %.lr.ph126 ]
  %61 = icmp ult ptr %.1.lcssa, %3
  br i1 %61, label %.lr.ph135, label %._crit_edge

.lr.ph126:                                        ; preds = %.preheader113, %.lr.ph126
  %.1125 = phi ptr [ %66, %.lr.ph126 ], [ %.0.lcssa, %.preheader113 ]
  %.1105124 = phi ptr [ %67, %.lr.ph126 ], [ %.0104.lcssa, %.preheader113 ]
  %.1108123 = phi ptr [ %68, %.lr.ph126 ], [ %.0107.lcssa, %.preheader113 ]
  %.1111122 = phi ptr [ %69, %.lr.ph126 ], [ %.0110.lcssa, %.preheader113 ]
  tail call void asm sideeffect "", "r,~{dirflag},~{fpsr},~{flags}"(ptr %.1105124) #24, !srcloc !758
  %62 = load <4 x float>, ptr %.1125, align 1, !tbaa !4
  %63 = fmul <4 x float> %16, %62
  store <4 x float> %63, ptr %.1105124, align 1, !tbaa !4
  %64 = fmul <4 x float> %18, %62
  store <4 x float> %64, ptr %.1108123, align 1, !tbaa !4
  %65 = fmul <4 x float> %20, %62
  store <4 x float> %65, ptr %.1111122, align 1, !tbaa !4
  %66 = getelementptr inbounds nuw i8, ptr %.1125, i64 16
  %67 = getelementptr inbounds nuw i8, ptr %.1105124, i64 16
  %68 = getelementptr inbounds nuw i8, ptr %.1108123, i64 16
  %69 = getelementptr inbounds nuw i8, ptr %.1111122, i64 16
  %70 = ptrtoint ptr %66 to i64
  %71 = sub i64 %21, %70
  %72 = icmp sgt i64 %71, 15
  br i1 %72, label %.lr.ph126, label %.preheader, !llvm.loop !759

.lr.ph135:                                        ; preds = %.preheader, %.lr.ph135
  %.2134 = phi ptr [ %77, %.lr.ph135 ], [ %.1.lcssa, %.preheader ]
  %.2106133 = phi ptr [ %78, %.lr.ph135 ], [ %.1105.lcssa, %.preheader ]
  %.2109132 = phi ptr [ %79, %.lr.ph135 ], [ %.1108.lcssa, %.preheader ]
  %.2112131 = phi ptr [ %80, %.lr.ph135 ], [ %.1111.lcssa, %.preheader ]
  %73 = load float, ptr %.2134, align 4, !tbaa !50
  tail call void asm sideeffect "", "r,~{dirflag},~{fpsr},~{flags}"(ptr %.2106133) #24, !srcloc !760
  %74 = fmul float %6, %73
  store float %74, ptr %.2106133, align 4, !tbaa !50
  %75 = fmul float %10, %73
  store float %75, ptr %.2109132, align 4, !tbaa !50
  %76 = fmul float %14, %73
  store float %76, ptr %.2112131, align 4, !tbaa !50
  %77 = getelementptr inbounds nuw i8, ptr %.2134, i64 4
  %78 = getelementptr inbounds nuw i8, ptr %.2106133, i64 4
  %79 = getelementptr inbounds nuw i8, ptr %.2109132, i64 4
  %80 = getelementptr inbounds nuw i8, ptr %.2112131, i64 4
  %81 = icmp ult ptr %77, %3
  br i1 %81, label %.lr.ph135, label %._crit_edge, !llvm.loop !761

._crit_edge:                                      ; preds = %.lr.ph135, %.preheader
  ret void
}